target datalayout = "e-m:e-p270:32:32-p271:32:32-p272:64:64-i64:64-i128:128-f80:128-n8:16:32:64-S128"
target triple = "x86_64-pc-linux-gnu"

%struct.AACArithState = type { [513 x i8], i32, [4 x i8], i16 }

; Function Attrs: nounwind uwtable
define void @ff_aac_ac_finish(ptr noundef %0, i32 noundef %1, i32 noundef %2) #0 {
  %4 = alloca ptr, align 8
  %5 = alloca i32, align 4
  %6 = alloca i32, align 4
  %7 = alloca i32, align 4
  store ptr %0, ptr %4, align 8, !tbaa !4
  store i32 %1, ptr %5, align 4, !tbaa !9
  store i32 %2, ptr %6, align 4, !tbaa !9
  call void @llvm.lifetime.start.p0(i64 4, ptr %7) #6
  %8 = load i32, ptr %5, align 4, !tbaa !9
  store i32 %8, ptr %7, align 4, !tbaa !9
  br label %9

9:                                                ; preds = %20, %3
  %10 = load i32, ptr %7, align 4, !tbaa !9
  %11 = load i32, ptr %6, align 4, !tbaa !9
  %12 = sdiv i32 %11, 2
  %13 = icmp slt i32 %10, %12
  br i1 %13, label %14, label %23

14:                                               ; preds = %9
  %15 = load ptr, ptr %4, align 8, !tbaa !4
  %16 = getelementptr inbounds nuw %struct.AACArithState, ptr %15, i32 0, i32 0
  %17 = load i32, ptr %7, align 4, !tbaa !9
  %18 = sext i32 %17 to i64
  %19 = getelementptr inbounds [513 x i8], ptr %16, i64 0, i64 %18
  store i8 1, ptr %19, align 1, !tbaa !16
  br label %20

20:                                               ; preds = %14
  %21 = load i32, ptr %7, align 4, !tbaa !9
  %22 = add nsw i32 %21, 1
  store i32 %22, ptr %7, align 4, !tbaa !9
  br label %9, !llvm.loop !39

23:                                               ; preds = %9
  br label %24

24:                                               ; preds = %34, %23
  %25 = load i32, ptr %7, align 4, !tbaa !9
  %26 = sext i32 %25 to i64
  %27 = icmp ult i64 %26, 513
  br i1 %27, label %28, label %37

28:                                               ; preds = %24
  %29 = load ptr, ptr %4, align 8, !tbaa !4
  %30 = getelementptr inbounds nuw %struct.AACArithState, ptr %29, i32 0, i32 0
  %31 = load i32, ptr %7, align 4, !tbaa !9
  %32 = sext i32 %31 to i64
  %33 = getelementptr inbounds [513 x i8], ptr %30, i64 0, i64 %32
  store i8 0, ptr %33, align 1, !tbaa !16
  br label %34

34:                                               ; preds = %28
  %35 = load i32, ptr %7, align 4, !tbaa !9
  %36 = add nsw i32 %35, 1
  store i32 %36, ptr %7, align 4, !tbaa !9
  br label %24, !llvm.loop !40

37:                                               ; preds = %24
  call void @llvm.lifetime.end.p0(i64 4, ptr %7) #6
  ret void
}