; Function Attrs: nofree norecurse nosync nounwind memory(argmem: write) uwtable
define void @ff_aac_ac_finish(ptr noundef writeonly captures(none) %0, i32 noundef %1, i32 noundef %2) local_unnamed_addr #8 {
  %4 = sdiv i32 %2, 2
  %5 = icmp slt i32 %1, %4
  br i1 %5, label %.lr.ph.preheader, label %.preheader

.lr.ph.preheader:                                 ; preds = %3
  %6 = sext i32 %1 to i64
  %scevgep = getelementptr i8, ptr %0, i64 %6
  %7 = xor i32 %1, -1
  %8 = add i32 %4, %7
  %9 = zext i32 %8 to i64
  %10 = add nuw nsw i64 %9, 1
  tail call void @llvm.memset.p0.i64(ptr noundef nonnull align 1 dereferenceable(1) %scevgep, i8 1, i64 %10, i1 false), !tbaa !10
  br label %.preheader

.preheader:                                       ; preds = %.lr.ph.preheader, %3
  %.0.lcssa = phi i32 [ %1, %3 ], [ %4, %.lr.ph.preheader ]
  %11 = icmp ult i32 %.0.lcssa, 513
  br i1 %11, label %.lr.ph12.preheader, label %._crit_edge

.lr.ph12.preheader:                               ; preds = %.preheader
  %12 = zext nneg i32 %.0.lcssa to i64
  %scevgep14 = getelementptr i8, ptr %0, i64 %12
  %narrow = sub nuw nsw i32 513, %.0.lcssa
  %13 = zext nneg i32 %narrow to i64
  tail call void @llvm.memset.p0.i64(ptr align 1 %scevgep14, i8 0, i64 %13, i1 false), !tbaa !10
  br label %._crit_edge

._crit_edge:                                      ; preds = %.lr.ph12.preheader, %.preheader
  ret void
}